; Function Attrs: mustprogress nofree norecurse nosync nounwind willreturn memory(readwrite, inaccessiblemem: none) uwtable
define void @Saig_StrSimulateNode(ptr noundef readonly captures(none) %0, i32 noundef %1) local_unnamed_addr #5 {
  %3 = getelementptr inbounds nuw i8, ptr %0, i64 40
  %4 = load ptr, ptr %3, align 8, !tbaa !3
  %5 = getelementptr i8, ptr %0, i64 8
  %.val = load ptr, ptr %5, align 8, !tbaa !14
  %6 = ptrtoint ptr %.val to i64
  %7 = and i64 %6, -2
  %8 = inttoptr i64 %7 to ptr
  %9 = getelementptr inbounds nuw i8, ptr %8, i64 40
  %10 = load ptr, ptr %9, align 8, !tbaa !3
  %11 = getelementptr i8, ptr %0, i64 16
  %.val37 = load ptr, ptr %11, align 8, !tbaa !18
  %12 = ptrtoint ptr %.val37 to i64
  %13 = and i64 %12, -2
  %14 = inttoptr i64 %13 to ptr
  %15 = getelementptr inbounds nuw i8, ptr %14, i64 40
  %16 = load ptr, ptr %15, align 8, !tbaa !3
  %17 = and i64 %6, 1
  %.not = icmp eq i64 %17, 0
  %18 = and i64 %12, 1
  %.not36 = icmp eq i64 %18, 0
  %19 = sext i32 %1 to i64
  %20 = getelementptr inbounds i32, ptr %10, i64 %19
  %21 = load i32, ptr %20, align 4, !tbaa !6
  br i1 %.not, label %34, label %22

22:                                               ; preds = %2
  %23 = getelementptr inbounds i32, ptr %4, i64 %19
  br i1 %.not36, label %29, label %24

24:                                               ; preds = %22
  %25 = getelementptr inbounds i32, ptr %16, i64 %19
  %26 = load i32, ptr %25, align 4, !tbaa !6
  %27 = or i32 %26, %21
  %28 = xor i32 %27, -1
  store i32 %28, ptr %23, align 4, !tbaa !6
  br label %44

29:                                               ; preds = %22
  %30 = xor i32 %21, -1
  %31 = getelementptr inbounds i32, ptr %16, i64 %19
  %32 = load i32, ptr %31, align 4, !tbaa !6
  %33 = and i32 %32, %30
  store i32 %33, ptr %23, align 4, !tbaa !6
  br label %44

34:                                               ; preds = %2
  %35 = getelementptr inbounds i32, ptr %16, i64 %19
  %36 = load i32, ptr %35, align 4, !tbaa !6
  br i1 %.not36, label %41, label %37

37:                                               ; preds = %34
  %38 = xor i32 %36, -1
  %39 = and i32 %21, %38
  %40 = getelementptr inbounds i32, ptr %4, i64 %19
  store i32 %39, ptr %40, align 4, !tbaa !6
  br label %44

41:                                               ; preds = %34
  %42 = and i32 %36, %21
  %43 = getelementptr inbounds i32, ptr %4, i64 %19
  store i32 %42, ptr %43, align 4, !tbaa !6
  br label %44

44:                                               ; preds = %29, %41, %37, %24
  ret void
}